; Function Attrs: mustprogress uwtable
define void @_ZN6duckdb7roaring20RoaringCompressState10HandleByteERS1_h(ptr noundef nonnull align 8 dereferenceable(1144) %0, i8 noundef zeroext %1) local_unnamed_addr #0 align 2 {
  switch i8 %1, label %38 [
    i8 -1, label %3
    i8 0, label %21
  ]

3:                                                ; preds = %2
  %4 = getelementptr inbounds nuw i8, ptr %0, i64 32
  %5 = load i16, ptr %4, align 8, !tbaa !330
  %.not.i = icmp ne i16 %5, 0
  %6 = getelementptr inbounds nuw i8, ptr %0, i64 34
  %7 = load i8, ptr %6, align 2, !range !319
  %8 = icmp eq i8 %7, 0
  %or.cond.i = select i1 %.not.i, i1 %8, i1 false
  br i1 %or.cond.i, label %9, label %_ZN6duckdb7roaring20RoaringCompressState14HandleAllValidERS1_m.exit

9:                                                ; preds = %3
  %10 = getelementptr inbounds nuw i8, ptr %0, i64 960
  %11 = load ptr, ptr %10, align 8, !tbaa !344
  tail call void %11(ptr noundef nonnull align 8 dereferenceable(936) %4, i1 noundef zeroext true, i16 noundef zeroext %5)
  %12 = getelementptr inbounds nuw i8, ptr %0, i64 40
  store i8 1, ptr %12, align 8, !tbaa !343
  %13 = getelementptr inbounds nuw i8, ptr %0, i64 38
  %14 = load i16, ptr %13, align 2, !tbaa !341
  %15 = add i16 %14, %5
  store i16 %15, ptr %13, align 2, !tbaa !341
  %16 = getelementptr inbounds nuw i8, ptr %0, i64 36
  %17 = load i16, ptr %16, align 4, !tbaa !340
  %18 = add i16 %17, %5
  store i16 %18, ptr %16, align 4, !tbaa !340
  br label %_ZN6duckdb7roaring20RoaringCompressState14HandleAllValidERS1_m.exit

_ZN6duckdb7roaring20RoaringCompressState14HandleAllValidERS1_m.exit: ; preds = %3, %9
  %19 = phi i16 [ 0, %9 ], [ %5, %3 ]
  %20 = add i16 %19, 8
  store i16 %20, ptr %4, align 8, !tbaa !330
  store i8 1, ptr %6, align 2, !tbaa !412
  br label %_ZN6duckdb7roaring20RoaringCompressState16HandleRaggedByteERS1_hm.exit

21:                                               ; preds = %2
  %22 = getelementptr inbounds nuw i8, ptr %0, i64 32
  %23 = load i16, ptr %22, align 8, !tbaa !330
  %.not.i5 = icmp eq i16 %23, 0
  br i1 %.not.i5, label %_ZN6duckdb7roaring20RoaringCompressState15HandleNoneValidERS1_m.exit, label %24

24:                                               ; preds = %21
  %25 = getelementptr inbounds nuw i8, ptr %0, i64 34
  %26 = load i8, ptr %25, align 2, !tbaa !412, !range !319, !noundef !229
  %27 = trunc nuw i8 %26 to i1
  br i1 %27, label %28, label %_ZN6duckdb7roaring20RoaringCompressState15HandleNoneValidERS1_m.exit

28:                                               ; preds = %24
  %29 = getelementptr inbounds nuw i8, ptr %0, i64 960
  %30 = load ptr, ptr %29, align 8, !tbaa !344
  tail call void %30(ptr noundef nonnull align 8 dereferenceable(936) %22, i1 noundef zeroext false, i16 noundef zeroext %23)
  %31 = getelementptr inbounds nuw i8, ptr %0, i64 40
  store i8 0, ptr %31, align 8, !tbaa !343
  %32 = getelementptr inbounds nuw i8, ptr %0, i64 36
  %33 = load i16, ptr %32, align 4, !tbaa !340
  %34 = add i16 %33, %23
  store i16 %34, ptr %32, align 4, !tbaa !340
  br label %_ZN6duckdb7roaring20RoaringCompressState15HandleNoneValidERS1_m.exit

_ZN6duckdb7roaring20RoaringCompressState15HandleNoneValidERS1_m.exit: ; preds = %21, %24, %28
  %35 = phi i16 [ 0, %28 ], [ %23, %24 ], [ 0, %21 ]
  %36 = add i16 %35, 8
  store i16 %36, ptr %22, align 8, !tbaa !330
  %37 = getelementptr inbounds nuw i8, ptr %0, i64 34
  store i8 0, ptr %37, align 2, !tbaa !412
  br label %_ZN6duckdb7roaring20RoaringCompressState16HandleRaggedByteERS1_hm.exit

38:                                               ; preds = %2
  %39 = zext i8 %1 to i32
  %40 = getelementptr inbounds nuw i8, ptr %0, i64 32
  %41 = getelementptr inbounds nuw i8, ptr %0, i64 34
  %42 = getelementptr inbounds nuw i8, ptr %0, i64 960
  %43 = getelementptr inbounds nuw i8, ptr %0, i64 40
  %44 = getelementptr inbounds nuw i8, ptr %0, i64 38
  %45 = getelementptr inbounds nuw i8, ptr %0, i64 36
  %.pre.i = load i16, ptr %40, align 8, !tbaa !330
  br label %46

46:                                               ; preds = %_ZN6duckdb7roaringL9HandleBitERNS0_20RoaringCompressStateEb.exit.i, %38
  %47 = phi i16 [ %.pre.i, %38 ], [ %66, %_ZN6duckdb7roaringL9HandleBitERNS0_20RoaringCompressStateEb.exit.i ]
  %.06.i = phi i64 [ 0, %38 ], [ %67, %_ZN6duckdb7roaringL9HandleBitERNS0_20RoaringCompressStateEb.exit.i ]
  %48 = trunc i64 %.06.i to i32
  %49 = shl nuw i32 1, %48
  %50 = and i32 %49, %39
  %51 = icmp ne i32 %50, 0
  %.not.i.i = icmp eq i16 %47, 0
  br i1 %.not.i.i, label %._crit_edge.i.i, label %52

._crit_edge.i.i:                                  ; preds = %46
  %.pre.i.i = zext i1 %51 to i8
  br label %_ZN6duckdb7roaringL9HandleBitERNS0_20RoaringCompressStateEb.exit.i

52:                                               ; preds = %46
  %53 = load i8, ptr %41, align 2, !tbaa !412, !range !319, !noundef !229
  %54 = zext i1 %51 to i8
  %.not10.i.i = icmp eq i8 %53, %54
  br i1 %.not10.i.i, label %_ZN6duckdb7roaringL9HandleBitERNS0_20RoaringCompressStateEb.exit.i, label %55

55:                                               ; preds = %52
  %56 = trunc nuw i8 %53 to i1
  %57 = xor i1 %56, true
  %58 = zext i1 %57 to i8
  %59 = load ptr, ptr %42, align 8, !tbaa !344
  tail call void %59(ptr noundef nonnull align 8 dereferenceable(936) %40, i1 noundef zeroext %57, i16 noundef zeroext %47)
  store i8 %58, ptr %43, align 8, !tbaa !343
  %60 = select i1 %56, i16 0, i16 %47
  %61 = load i16, ptr %44, align 2, !tbaa !341
  %62 = add i16 %61, %60
  store i16 %62, ptr %44, align 2, !tbaa !341
  %63 = load i16, ptr %45, align 4, !tbaa !340
  %64 = add i16 %63, %47
  store i16 %64, ptr %45, align 4, !tbaa !340
  br label %_ZN6duckdb7roaringL9HandleBitERNS0_20RoaringCompressStateEb.exit.i

_ZN6duckdb7roaringL9HandleBitERNS0_20RoaringCompressStateEb.exit.i: ; preds = %55, %52, %._crit_edge.i.i
  %.pre-phi.i.i = phi i8 [ %.pre.i.i, %._crit_edge.i.i ], [ %54, %55 ], [ %53, %52 ]
  %65 = phi i16 [ 0, %._crit_edge.i.i ], [ 0, %55 ], [ %47, %52 ]
  %66 = add i16 %65, 1
  store i16 %66, ptr %40, align 8, !tbaa !330
  store i8 %.pre-phi.i.i, ptr %41, align 2, !tbaa !412
  %67 = add nuw nsw i64 %.06.i, 1
  %exitcond.not.i = icmp eq i64 %67, 8
  br i1 %exitcond.not.i, label %_ZN6duckdb7roaring20RoaringCompressState16HandleRaggedByteERS1_hm.exit, label %46, !llvm.loop !413

_ZN6duckdb7roaring20RoaringCompressState16HandleRaggedByteERS1_hm.exit: ; preds = %_ZN6duckdb7roaringL9HandleBitERNS0_20RoaringCompressStateEb.exit.i, %_ZN6duckdb7roaring20RoaringCompressState15HandleNoneValidERS1_m.exit, %_ZN6duckdb7roaring20RoaringCompressState14HandleAllValidERS1_m.exit
  ret void
}